; Function Attrs: nounwind uwtable
define noalias nonnull ptr @l_Std_Time_Day_Ordinal_OfYear_toOffset___boxed(ptr noundef %0) local_unnamed_addr #0 {
  %2 = ptrtoint ptr %0 to i64
  %3 = and i64 %2, 1
  %.not = icmp eq i64 %3, 0
  br i1 %.not, label %4, label %lean_dec.exit

4:                                                ; preds = %1
  %5 = load i32, ptr %0, align 4, !tbaa !5
  %6 = icmp sgt i32 %5, 1
  br i1 %6, label %7, label %9, !prof !10

7:                                                ; preds = %4
  %8 = add nsw i32 %5, -1
  store i32 %8, ptr %0, align 4, !tbaa !5
  br label %lean_dec.exit

9:                                                ; preds = %4
  %.not.i = icmp eq i32 %5, 0
  br i1 %.not.i, label %lean_dec.exit, label %10

10:                                               ; preds = %9
  tail call void @lean_dec_ref_cold(ptr noundef nonnull %0) #6
  br label %lean_dec.exit

lean_dec.exit:                                    ; preds = %10, %9, %7, %1
  tail call void @lean_inc_heartbeat() #6
  %11 = tail call noalias ptr @mi_malloc_small(i64 noundef 24) #6
  %12 = icmp eq ptr %11, null
  br i1 %12, label %13, label %l_Std_Time_Day_Ordinal_OfYear_toOffset.exit

13:                                               ; preds = %lean_dec.exit
  tail call void @lean_internal_panic_out_of_memory() #7
  unreachable

l_Std_Time_Day_Ordinal_OfYear_toOffset.exit:      ; preds = %lean_dec.exit
  %14 = getelementptr inbounds nuw i8, ptr %11, i64 4
  store i32 1, ptr %11, align 4, !tbaa !5
  store i32 -184549352, ptr %14, align 4
  %15 = getelementptr inbounds nuw i8, ptr %11, i64 8
  store ptr @l_Std_Time_Day_Ordinal_OfYear_toOffset___rarg___boxed, ptr %15, align 8, !tbaa !11
  %16 = getelementptr inbounds nuw i8, ptr %11, i64 16
  store i16 1, ptr %16, align 8, !tbaa !15
  %17 = getelementptr inbounds nuw i8, ptr %11, i64 18
  store i16 0, ptr %17, align 2, !tbaa !15
  ret ptr %11
}